target datalayout = "e-m:e-p270:32:32-p271:32:32-p272:64:64-i64:64-i128:128-f80:128-n8:16:32:64-S128"
target triple = "x86_64-pc-linux-gnu"

%"class.pxrInternal_v0_24__pxrReserved__::UsdSkelCache" = type { %"class.std::shared_ptr" }
%"class.std::shared_ptr" = type { %"class.std::__shared_ptr" }
%"class.std::__shared_ptr" = type { ptr, %"class.std::__shared_count" }
%"class.std::__shared_count" = type { ptr }
%"struct.std::atomic" = type { %"struct.std::__atomic_base" }
%"struct.std::__atomic_base" = type { i64 }
%"class.tbb::detail::d1::queuing_rw_mutex::scoped_lock" = type <{ ptr, %"struct.std::atomic", %"struct.std::atomic", %"struct.std::atomic.23", %"struct.std::atomic.23", %"struct.std::atomic.23", [5 x i8] }>
%"struct.std::atomic.23" = type { %"struct.std::__atomic_base.24" }
%"struct.std::__atomic_base.24" = type { i8 }
%"class.pxrInternal_v0_24__pxrReserved__::UsdSkelAnimQuery" = type { %"class.pxrInternal_v0_24__pxrReserved__::TfRefPtr" }
%"class.pxrInternal_v0_24__pxrReserved__::TfRefPtr" = type { ptr }
%"struct.pxrInternal_v0_24__pxrReserved__::UsdSkel_CacheImpl::ReadScope" = type { ptr, %"class.tbb::detail::d1::queuing_rw_mutex::scoped_lock" }
%"class.pxrInternal_v0_24__pxrReserved__::UsdPrim" = type { %"class.pxrInternal_v0_24__pxrReserved__::UsdObject" }
%"class.pxrInternal_v0_24__pxrReserved__::UsdObject" = type { i32, %"class.pxrInternal_v0_24__pxrReserved__::Usd_PrimDataHandle", %"class.pxrInternal_v0_24__pxrReserved__::SdfPath", %"class.pxrInternal_v0_24__pxrReserved__::TfToken" }
%"class.pxrInternal_v0_24__pxrReserved__::Usd_PrimDataHandle" = type { %"class.pxrInternal_v0_24__pxrReserved__::TfDelegatedCountPtr" }
%"class.pxrInternal_v0_24__pxrReserved__::TfDelegatedCountPtr" = type { ptr }
%"class.pxrInternal_v0_24__pxrReserved__::SdfPath" = type { %"struct.pxrInternal_v0_24__pxrReserved__::Sdf_PathNodeHandleImpl", %"struct.pxrInternal_v0_24__pxrReserved__::Sdf_PathNodeHandleImpl.25" }
%"struct.pxrInternal_v0_24__pxrReserved__::Sdf_PathNodeHandleImpl" = type { %"struct.pxrInternal_v0_24__pxrReserved__::Sdf_Pool<pxrInternal_v0_24__pxrReserved__::Sdf_PathPrimTag, 24, 8>::Handle" }
%"struct.pxrInternal_v0_24__pxrReserved__::Sdf_Pool<pxrInternal_v0_24__pxrReserved__::Sdf_PathPrimTag, 24, 8>::Handle" = type { i32 }
%"struct.pxrInternal_v0_24__pxrReserved__::Sdf_PathNodeHandleImpl.25" = type { %"struct.pxrInternal_v0_24__pxrReserved__::Sdf_Pool<pxrInternal_v0_24__pxrReserved__::Sdf_PathPropTag, 24, 8>::Handle" }
%"struct.pxrInternal_v0_24__pxrReserved__::Sdf_Pool<pxrInternal_v0_24__pxrReserved__::Sdf_PathPropTag, 24, 8>::Handle" = type { i32 }
%"class.pxrInternal_v0_24__pxrReserved__::TfToken" = type { %"class.pxrInternal_v0_24__pxrReserved__::TfPointerAndBits" }
%"class.pxrInternal_v0_24__pxrReserved__::TfPointerAndBits" = type { ptr }
%"class.pxrInternal_v0_24__pxrReserved__::UsdSchemaBase" = type { ptr, %"class.pxrInternal_v0_24__pxrReserved__::Usd_PrimDataHandle", %"class.pxrInternal_v0_24__pxrReserved__::SdfPath" }

; Function Attrs: mustprogress uwtable
define linkonce_odr void @_ZN32pxrInternal_v0_24__pxrReserved__7UsdPrimC2ERKNS_18Usd_PrimDataHandleERKNS_7SdfPathE(ptr noundef nonnull align 8 dereferenceable(32) %0, ptr noundef nonnull align 8 dereferenceable(8) %1, ptr noundef nonnull align 4 dereferenceable(8) %2) unnamed_addr #0 comdat align 2 {
  %4 = alloca ptr, align 8
  %5 = alloca ptr, align 8
  %6 = alloca ptr, align 8
  store ptr %0, ptr %4, align 8
  store ptr %1, ptr %5, align 8
  store ptr %2, ptr %6, align 8
  %7 = load ptr, ptr %4, align 8
  %8 = load ptr, ptr %5, align 8
  %9 = load ptr, ptr %6, align 8
  call void @_ZN32pxrInternal_v0_24__pxrReserved__9UsdObjectC2ERKNS_18Usd_PrimDataHandleERKNS_7SdfPathE(ptr noundef nonnull align 8 dereferenceable(32) %7, ptr noundef nonnull align 8 dereferenceable(8) %8, ptr noundef nonnull align 4 dereferenceable(8) %9)
  ret void
}

; Function Attrs: mustprogress uwtable
define linkonce_odr void @_ZNK32pxrInternal_v0_24__pxrReserved__13UsdSchemaBase7GetPrimEv(ptr dead_on_unwind noalias writable sret(%"class.pxrInternal_v0_24__pxrReserved__::UsdPrim") align 8 %0, ptr noundef nonnull align 8 dereferenceable(24) %1) #0 comdat align 2 {
  %3 = alloca ptr, align 8
  %4 = alloca ptr, align 8
  store ptr %0, ptr %3, align 8
  store ptr %1, ptr %4, align 8
  %5 = load ptr, ptr %4, align 8
  %6 = getelementptr inbounds nuw %"class.pxrInternal_v0_24__pxrReserved__::UsdSchemaBase", ptr %5, i32 0, i32 1
  %7 = getelementptr inbounds nuw %"class.pxrInternal_v0_24__pxrReserved__::UsdSchemaBase", ptr %5, i32 0, i32 2
  call void @_ZN32pxrInternal_v0_24__pxrReserved__7UsdPrimC2ERKNS_18Usd_PrimDataHandleERKNS_7SdfPathE(ptr noundef nonnull align 8 dereferenceable(32) %0, ptr noundef nonnull align 8 dereferenceable(8) %6, ptr noundef nonnull align 4 dereferenceable(8) %7)
  ret void
}

; Function Attrs: mustprogress nounwind uwtable
define linkonce_odr noundef ptr @_ZNKSt12__shared_ptrIN32pxrInternal_v0_24__pxrReserved__17UsdSkel_CacheImplELN9__gnu_cxx12_Lock_policyE2EE3getEv(ptr noundef nonnull align 8 dereferenceable(16) %0) #3 comdat align 2 {
  %2 = alloca ptr, align 8
  store ptr %0, ptr %2, align 8
  %3 = load ptr, ptr %2, align 8
  %4 = getelementptr inbounds nuw %"class.std::__shared_ptr", ptr %3, i32 0, i32 0
  %5 = load ptr, ptr %4, align 8
  ret ptr %5
}

; Function Attrs: mustprogress uwtable
define void @_ZNK32pxrInternal_v0_24__pxrReserved__12UsdSkelCache12GetAnimQueryERKNS_16UsdSkelAnimationE(ptr dead_on_unwind noalias writable sret(%"class.pxrInternal_v0_24__pxrReserved__::UsdSkelAnimQuery") align 8 %0, ptr noundef nonnull align 8 dereferenceable(16) %1, ptr noundef nonnull align 8 dereferenceable(24) %2) #0 align 2 personality ptr @__gxx_personality_v0 {
  %4 = alloca ptr, align 8
  %5 = alloca ptr, align 8
  %6 = alloca ptr, align 8
  %7 = alloca %"struct.pxrInternal_v0_24__pxrReserved__::UsdSkel_CacheImpl::ReadScope", align 8
  %8 = alloca %"class.pxrInternal_v0_24__pxrReserved__::UsdPrim", align 8
  %9 = alloca ptr, align 8
  %10 = alloca i32, align 4
  store ptr %0, ptr %4, align 8
  store ptr %1, ptr %5, align 8
  store ptr %2, ptr %6, align 8
  %11 = load ptr, ptr %5, align 8
  %12 = getelementptr inbounds nuw %"class.pxrInternal_v0_24__pxrReserved__::UsdSkelCache", ptr %11, i32 0, i32 0
  %13 = call noundef ptr @_ZNKSt12__shared_ptrIN32pxrInternal_v0_24__pxrReserved__17UsdSkel_CacheImplELN9__gnu_cxx12_Lock_policyE2EE3getEv(ptr noundef nonnull align 8 dereferenceable(16) %12) #15
  call void @_ZN32pxrInternal_v0_24__pxrReserved__17UsdSkel_CacheImpl9ReadScopeC1EPS0_(ptr noundef nonnull align 8 dereferenceable(40) %7, ptr noundef %13)
  %14 = load ptr, ptr %6, align 8
  invoke void @_ZNK32pxrInternal_v0_24__pxrReserved__13UsdSchemaBase7GetPrimEv(ptr dead_on_unwind writable sret(%"class.pxrInternal_v0_24__pxrReserved__::UsdPrim") align 8 %8, ptr noundef nonnull align 8 dereferenceable(24) %14)
          to label %15 unwind label %17

15:                                               ; preds = %3
  invoke void @_ZN32pxrInternal_v0_24__pxrReserved__17UsdSkel_CacheImpl9ReadScope21FindOrCreateAnimQueryERKNS_7UsdPrimE(ptr dead_on_unwind writable sret(%"class.pxrInternal_v0_24__pxrReserved__::UsdSkelAnimQuery") align 8 %0, ptr noundef nonnull align 8 dereferenceable(40) %7, ptr noundef nonnull align 8 dereferenceable(32) %8)
          to label %16 unwind label %21

16:                                               ; preds = %15
  call void @_ZN32pxrInternal_v0_24__pxrReserved__7UsdPrimD2Ev(ptr noundef nonnull align 8 dereferenceable(32) %8) #15
  call void @_ZN32pxrInternal_v0_24__pxrReserved__17UsdSkel_CacheImpl9ReadScopeD2Ev(ptr noundef nonnull align 8 dereferenceable(40) %7) #15
  ret void

17:                                               ; preds = %3
  %18 = landingpad { ptr, i32 }
          cleanup
  %19 = extractvalue { ptr, i32 } %18, 0
  store ptr %19, ptr %9, align 8
  %20 = extractvalue { ptr, i32 } %18, 1
  store i32 %20, ptr %10, align 4
  br label %25

21:                                               ; preds = %15
  %22 = landingpad { ptr, i32 }
          cleanup
  %23 = extractvalue { ptr, i32 } %22, 0
  store ptr %23, ptr %9, align 8
  %24 = extractvalue { ptr, i32 } %22, 1
  store i32 %24, ptr %10, align 4
  call void @_ZN32pxrInternal_v0_24__pxrReserved__7UsdPrimD2Ev(ptr noundef nonnull align 8 dereferenceable(32) %8) #15
  br label %25

25:                                               ; preds = %21, %17
  call void @_ZN32pxrInternal_v0_24__pxrReserved__17UsdSkel_CacheImpl9ReadScopeD2Ev(ptr noundef nonnull align 8 dereferenceable(40) %7) #15
  br label %26

26:                                               ; preds = %25
  %27 = load ptr, ptr %9, align 8
  %28 = load i32, ptr %10, align 4
  %29 = insertvalue { ptr, i32 } poison, ptr %27, 0
  %30 = insertvalue { ptr, i32 } %29, i32 %28, 1
  resume { ptr, i32 } %30
}